; Function Attrs: nounwind uwtable
define internal range(i32 -1, 1) i32 @H5P__dcrt_layout_del(i64 %0, ptr readnone captures(none) %1, i64 %2, ptr noundef %3) #0 {
  %5 = load i8, ptr @H5P_init_g, align 1, !tbaa !3, !range !7, !noundef !8
  %6 = trunc nuw i8 %5 to i1
  %7 = load i8, ptr @H5_libterm_g, align 1, !range !7
  %8 = trunc nuw i8 %7 to i1
  %9 = xor i1 %8, true
  %10 = select i1 %6, i1 true, i1 %9
  br i1 %10, label %11, label %18, !prof !9

11:                                               ; preds = %4
  %12 = tail call i32 @H5O_msg_reset(i32 noundef 8, ptr noundef %3) #12
  %13 = icmp slt i32 %12, 0
  br i1 %13, label %14, label %18

14:                                               ; preds = %11
  %15 = load i64, ptr @H5E_PLIST_g, align 8, !tbaa !10
  %16 = load i64, ptr @H5E_CANTRESET_g, align 8, !tbaa !10
  %17 = tail call i32 (ptr, ptr, i32, i64, i64, ptr, ...) @H5E_printf_stack(ptr noundef nonnull @.str.1, ptr noundef nonnull @__func__.H5P__dcrt_layout_del, i32 noundef 760, i64 noundef %15, i64 noundef %16, ptr noundef nonnull @.str.22) #12
  br label %18

18:                                               ; preds = %14, %11, %4
  %.0 = phi i32 [ -1, %14 ], [ 0, %11 ], [ 0, %4 ]
  ret i32 %.0
}